; Function Attrs: mustprogress nofree norecurse nosync nounwind memory(argmem: readwrite) uwtable
define noundef i32 @_Z15start_binsearchPfPiiifi(ptr noundef captures(none) %0, ptr noundef captures(none) %1, i32 noundef %2, i32 noundef %3, float noundef %4, i32 noundef %5) local_unnamed_addr #1 {
  %7 = icmp slt i32 %5, 0
  %.not52.i = icmp sgt i32 %2, %3
  %or.cond.i = or i1 %.not52.i, %7
  br i1 %or.cond.i, label %.loopexit49.i, label %.preheader47.preheader.i

.preheader47.preheader.i:                         ; preds = %6
  %8 = sext i32 %2 to i64
  %9 = add i32 %3, 1
  br label %.preheader47.i

.preheader47.i:                                   ; preds = %.critedge.i, %.preheader47.preheader.i
  %indvars.iv.i = phi i64 [ %8, %.preheader47.preheader.i ], [ %indvars.iv.next.i, %.critedge.i ]
  %10 = icmp sgt i64 %indvars.iv.i, %8
  br i1 %10, label %.lr.ph.preheader.i, label %.critedge.i

.lr.ph.preheader.i:                               ; preds = %.preheader47.i
  %.phi.trans.insert.i = getelementptr inbounds float, ptr %0, i64 %indvars.iv.i
  %.pre.i = load float, ptr %.phi.trans.insert.i, align 4, !tbaa !10
  br label %.lr.ph.i

.lr.ph.i:                                         ; preds = %14, %.lr.ph.preheader.i
  %indvars.iv60.i = phi i64 [ %indvars.iv.i, %.lr.ph.preheader.i ], [ %indvars.iv.next61.i, %14 ]
  %indvars.iv.next61.i = add nsw i64 %indvars.iv60.i, -1
  %11 = getelementptr inbounds float, ptr %0, i64 %indvars.iv.next61.i
  %12 = load float, ptr %11, align 4, !tbaa !10
  %13 = fcmp ogt float %12, %.pre.i
  br i1 %13, label %14, label %.critedge.i

14:                                               ; preds = %.lr.ph.i
  %15 = getelementptr inbounds float, ptr %0, i64 %indvars.iv60.i
  store float %12, ptr %15, align 4, !tbaa !10
  store float %.pre.i, ptr %11, align 4, !tbaa !10
  %16 = getelementptr inbounds i32, ptr %1, i64 %indvars.iv60.i
  %17 = getelementptr inbounds i32, ptr %1, i64 %indvars.iv.next61.i
  %18 = load i32, ptr %16, align 4, !tbaa !4
  %19 = load i32, ptr %17, align 4, !tbaa !4
  store i32 %19, ptr %16, align 4, !tbaa !4
  store i32 %18, ptr %17, align 4, !tbaa !4
  %20 = icmp sgt i64 %indvars.iv.next61.i, %8
  br i1 %20, label %.lr.ph.i, label %.critedge.i, !llvm.loop !12

.critedge.i:                                      ; preds = %14, %.lr.ph.i, %.preheader47.i
  %indvars.iv.next.i = add nsw i64 %indvars.iv.i, 1
  %lftr.wideiv = trunc i64 %indvars.iv.next.i to i32
  %exitcond.not = icmp eq i32 %9, %lftr.wideiv
  br i1 %exitcond.not, label %.loopexit49.i, label %.preheader47.i, !llvm.loop !13

.loopexit49.i:                                    ; preds = %.critedge.i, %6
  %21 = icmp sgt i32 %5, -1
  %or.cond59.i = or i1 %.not52.i, %21
  br i1 %or.cond59.i, label %_Z13insertionSortPfPiiii.exit, label %.preheader.preheader.i

.preheader.preheader.i:                           ; preds = %.loopexit49.i
  %22 = sext i32 %2 to i64
  %23 = add i32 %3, 1
  br label %.preheader.i

.preheader.i:                                     ; preds = %.critedge2.i, %.preheader.preheader.i
  %indvars.iv64.i = phi i64 [ %22, %.preheader.preheader.i ], [ %indvars.iv.next65.i, %.critedge2.i ]
  %24 = icmp sgt i64 %indvars.iv64.i, %22
  br i1 %24, label %.lr.ph55.preheader.i, label %.critedge2.i

.lr.ph55.preheader.i:                             ; preds = %.preheader.i
  %.phi.trans.insert70.i = getelementptr inbounds float, ptr %0, i64 %indvars.iv64.i
  %.pre71.i = load float, ptr %.phi.trans.insert70.i, align 4, !tbaa !10
  br label %.lr.ph55.i

.lr.ph55.i:                                       ; preds = %28, %.lr.ph55.preheader.i
  %indvars.iv66.i = phi i64 [ %indvars.iv64.i, %.lr.ph55.preheader.i ], [ %indvars.iv.next67.i, %28 ]
  %indvars.iv.next67.i = add nsw i64 %indvars.iv66.i, -1
  %25 = getelementptr inbounds float, ptr %0, i64 %indvars.iv.next67.i
  %26 = load float, ptr %25, align 4, !tbaa !10
  %27 = fcmp olt float %26, %.pre71.i
  br i1 %27, label %28, label %.critedge2.i

28:                                               ; preds = %.lr.ph55.i
  %29 = getelementptr inbounds float, ptr %0, i64 %indvars.iv66.i
  store float %26, ptr %29, align 4, !tbaa !10
  store float %.pre71.i, ptr %25, align 4, !tbaa !10
  %30 = getelementptr inbounds i32, ptr %1, i64 %indvars.iv66.i
  %31 = getelementptr inbounds i32, ptr %1, i64 %indvars.iv.next67.i
  %32 = load i32, ptr %30, align 4, !tbaa !4
  %33 = load i32, ptr %31, align 4, !tbaa !4
  store i32 %33, ptr %30, align 4, !tbaa !4
  store i32 %32, ptr %31, align 4, !tbaa !4
  %34 = icmp sgt i64 %indvars.iv.next67.i, %22
  br i1 %34, label %.lr.ph55.i, label %.critedge2.i, !llvm.loop !14

.critedge2.i:                                     ; preds = %28, %.lr.ph55.i, %.preheader.i
  %indvars.iv.next65.i = add nsw i64 %indvars.iv64.i, 1
  %lftr.wideiv13 = trunc i64 %indvars.iv.next65.i to i32
  %exitcond14.not = icmp eq i32 %23, %lftr.wideiv13
  br i1 %exitcond14.not, label %_Z13insertionSortPfPiiii.exit, label %.preheader.i, !llvm.loop !15

_Z13insertionSortPfPiiii.exit:                    ; preds = %.critedge2.i, %.loopexit49.i
  %35 = add nsw i32 %3, 2
  %36 = add nsw i32 %2, 1
  %invariant.gep31.i = getelementptr i8, ptr %0, i64 -4
  %37 = sub nsw i32 %35, %36
  %38 = icmp sgt i32 %37, 1
  br i1 %21, label %.preheader.i10, label %.preheader28.i

.preheader28.i:                                   ; preds = %_Z13insertionSortPfPiiii.exit
  br i1 %38, label %.lr.ph.i9, label %_Z12BinarySearchPKfiifi.exit

.preheader.i10:                                   ; preds = %_Z13insertionSortPfPiiii.exit
  br i1 %38, label %.lr.ph35.i, label %_Z12BinarySearchPKfiifi.exit

.lr.ph35.i:                                       ; preds = %.preheader.i10, %.lr.ph35.i
  %.034.i = phi i32 [ %.0..i, %.lr.ph35.i ], [ %36, %.preheader.i10 ]
  %.02333.i = phi i32 [ %..023.i, %.lr.ph35.i ], [ %35, %.preheader.i10 ]
  %39 = add nsw i32 %.02333.i, %.034.i
  %40 = ashr i32 %39, 1
  %41 = sext i32 %40 to i64
  %gep32.i = getelementptr float, ptr %invariant.gep31.i, i64 %41
  %42 = load float, ptr %gep32.i, align 4, !tbaa !10
  %43 = fcmp olt float %4, %42
  %..023.i = select i1 %43, i32 %40, i32 %.02333.i
  %.0..i = select i1 %43, i32 %.034.i, i32 %40
  %44 = sub nsw i32 %..023.i, %.0..i
  %45 = icmp sgt i32 %44, 1
  br i1 %45, label %.lr.ph35.i, label %_Z12BinarySearchPKfiifi.exit, !llvm.loop !16

.lr.ph.i9:                                        ; preds = %.preheader28.i, %.lr.ph.i9
  %.230.i = phi i32 [ %.2..i, %.lr.ph.i9 ], [ %36, %.preheader28.i ]
  %.22529.i = phi i32 [ %..225.i, %.lr.ph.i9 ], [ %35, %.preheader28.i ]
  %46 = add nsw i32 %.22529.i, %.230.i
  %47 = ashr i32 %46, 1
  %48 = sext i32 %47 to i64
  %gep.i = getelementptr float, ptr %invariant.gep31.i, i64 %48
  %49 = load float, ptr %gep.i, align 4, !tbaa !10
  %50 = fcmp ogt float %4, %49
  %..225.i = select i1 %50, i32 %47, i32 %.22529.i
  %.2..i = select i1 %50, i32 %.230.i, i32 %47
  %51 = sub nsw i32 %..225.i, %.2..i
  %52 = icmp sgt i32 %51, 1
  br i1 %52, label %.lr.ph.i9, label %._crit_edge.loopexit.i, !llvm.loop !17

._crit_edge.loopexit.i:                           ; preds = %.lr.ph.i9
  %53 = add nsw i32 %.2..i, -1
  br label %_Z12BinarySearchPKfiifi.exit

_Z12BinarySearchPKfiifi.exit:                     ; preds = %.lr.ph35.i, %.preheader28.i, %.preheader.i10, %._crit_edge.loopexit.i
  %.027.i = phi i32 [ %36, %.preheader.i10 ], [ %2, %.preheader28.i ], [ %53, %._crit_edge.loopexit.i ], [ %.0..i, %.lr.ph35.i ]
  ret i32 %.027.i
}